target datalayout = "e-m:e-p270:32:32-p271:32:32-p272:64:64-i64:64-i128:128-f80:128-n8:16:32:64-S128"
target triple = "x86_64-pc-linux-gnu"

%"class.std::shared_ptr" = type { %"class.std::__shared_ptr" }
%"class.std::__shared_ptr" = type { ptr, %"class.std::__shared_count" }
%"class.std::__shared_count" = type { ptr }
%"class.std::vector.9" = type { %"struct.std::_Vector_base.10" }
%"struct.std::_Vector_base.10" = type { %"struct.std::_Vector_base<int, std::allocator<int>>::_Vector_impl" }
%"struct.std::_Vector_base<int, std::allocator<int>>::_Vector_impl" = type { %"struct.std::_Vector_base<int, std::allocator<int>>::_Vector_impl_data" }
%"struct.std::_Vector_base<int, std::allocator<int>>::_Vector_impl_data" = type { ptr, ptr, ptr }
%"class.open_spiel::negotiation::NegotiationState" = type { %"class.open_spiel::State.base", ptr, i8, i8, i32, i32, i32, i32, i32, i8, i32, i32, %"class.std::vector.9", %"class.std::vector.14", %"class.std::vector.14", %"class.std::vector.14" }
%"class.open_spiel::State.base" = type <{ ptr, %"class.std::shared_ptr", i32, i32, %"class.std::vector", i32 }>
%"class.std::vector" = type { %"struct.std::_Vector_base" }
%"struct.std::_Vector_base" = type { %"struct.std::_Vector_base<open_spiel::State::PlayerAction, std::allocator<open_spiel::State::PlayerAction>>::_Vector_impl" }
%"struct.std::_Vector_base<open_spiel::State::PlayerAction, std::allocator<open_spiel::State::PlayerAction>>::_Vector_impl" = type { %"struct.std::_Vector_base<open_spiel::State::PlayerAction, std::allocator<open_spiel::State::PlayerAction>>::_Vector_impl_data" }
%"struct.std::_Vector_base<open_spiel::State::PlayerAction, std::allocator<open_spiel::State::PlayerAction>>::_Vector_impl_data" = type { ptr, ptr, ptr }
%"class.std::vector.14" = type { %"struct.std::_Vector_base.15" }
%"struct.std::_Vector_base.15" = type { %"struct.std::_Vector_base<std::vector<int>, std::allocator<std::vector<int>>>::_Vector_impl" }
%"struct.std::_Vector_base<std::vector<int>, std::allocator<std::vector<int>>>::_Vector_impl" = type { %"struct.std::_Vector_base<std::vector<int>, std::allocator<std::vector<int>>>::_Vector_impl_data" }
%"struct.std::_Vector_base<std::vector<int>, std::allocator<std::vector<int>>>::_Vector_impl_data" = type { ptr, ptr, ptr }

; Function Attrs: mustprogress nounwind uwtable
define linkonce_odr noundef i64 @_ZNKSt6vectorIS_IiSaIiEESaIS1_EE4sizeEv(ptr noundef nonnull align 8 dereferenceable(24) %0) #5 comdat align 2 {
  %2 = alloca ptr, align 8
  store ptr %0, ptr %2, align 8
  %3 = load ptr, ptr %2, align 8
  %4 = getelementptr inbounds nuw %"struct.std::_Vector_base.15", ptr %3, i32 0, i32 0
  %5 = getelementptr inbounds nuw %"struct.std::_Vector_base<std::vector<int>, std::allocator<std::vector<int>>>::_Vector_impl_data", ptr %4, i32 0, i32 1
  %6 = load ptr, ptr %5, align 8
  %7 = getelementptr inbounds nuw %"struct.std::_Vector_base.15", ptr %3, i32 0, i32 0
  %8 = getelementptr inbounds nuw %"struct.std::_Vector_base<std::vector<int>, std::allocator<std::vector<int>>>::_Vector_impl_data", ptr %7, i32 0, i32 0
  %9 = load ptr, ptr %8, align 8
  %10 = ptrtoint ptr %6 to i64
  %11 = ptrtoint ptr %9 to i64
  %12 = sub i64 %10, %11
  %13 = sdiv exact i64 %12, 24
  ret i64 %13
}

; Function Attrs: mustprogress nounwind uwtable
define noundef zeroext i1 @_ZNK10open_spiel11negotiation16NegotiationState10IsTerminalEv(ptr noundef nonnull align 8 dereferenceable(208) %0) unnamed_addr #5 align 2 {
  %2 = alloca ptr, align 8
  %3 = alloca i8, align 1
  store ptr %0, ptr %2, align 8
  %4 = load ptr, ptr %2, align 8
  %5 = getelementptr inbounds nuw %"class.open_spiel::negotiation::NegotiationState", ptr %4, i32 0, i32 3
  %6 = load i8, ptr %5, align 1
  %7 = trunc i8 %6 to i1
  br i1 %7, label %8, label %14

8:                                                ; preds = %1
  %9 = getelementptr inbounds nuw %"class.open_spiel::negotiation::NegotiationState", ptr %4, i32 0, i32 15
  %10 = call noundef i64 @_ZNKSt6vectorIS_IiSaIiEESaIS1_EE4sizeEv(ptr noundef nonnull align 8 dereferenceable(24) %9) #3
  %11 = getelementptr inbounds nuw %"class.open_spiel::negotiation::NegotiationState", ptr %4, i32 0, i32 14
  %12 = call noundef i64 @_ZNKSt6vectorIS_IiSaIiEESaIS1_EE4sizeEv(ptr noundef nonnull align 8 dereferenceable(24) %11) #3
  %13 = icmp eq i64 %10, %12
  br label %15

14:                                               ; preds = %1
  br label %15

15:                                               ; preds = %14, %8
  %16 = phi i1 [ %13, %8 ], [ true, %14 ]
  %17 = zext i1 %16 to i8
  store i8 %17, ptr %3, align 1
  %18 = getelementptr inbounds nuw %"class.open_spiel::negotiation::NegotiationState", ptr %4, i32 0, i32 9
  %19 = load i8, ptr %18, align 8
  %20 = trunc i8 %19 to i1
  br i1 %20, label %28, label %21

21:                                               ; preds = %15
  %22 = getelementptr inbounds nuw %"class.open_spiel::negotiation::NegotiationState", ptr %4, i32 0, i32 14
  %23 = call noundef i64 @_ZNKSt6vectorIS_IiSaIiEESaIS1_EE4sizeEv(ptr noundef nonnull align 8 dereferenceable(24) %22) #3
  %24 = getelementptr inbounds nuw %"class.open_spiel::negotiation::NegotiationState", ptr %4, i32 0, i32 8
  %25 = load i32, ptr %24, align 4
  %26 = sext i32 %25 to i64
  %27 = icmp uge i64 %23, %26
  br i1 %27, label %28, label %31

28:                                               ; preds = %21, %15
  %29 = load i8, ptr %3, align 1
  %30 = trunc i8 %29 to i1
  br label %31

31:                                               ; preds = %28, %21
  %32 = phi i1 [ false, %21 ], [ %30, %28 ]
  ret i1 %32
}