; Function Attrs: mustprogress nofree norecurse nosync nounwind willreturn memory(argmem: read) uwtable
define noundef zeroext i1 @_ZNK10open_spiel11negotiation16NegotiationState10IsTerminalEv(ptr nocapture noundef nonnull readonly align 8 dereferenceable(208) %0) unnamed_addr #6 align 2 {
  %2 = getelementptr inbounds nuw i8, ptr %0, i64 73
  %3 = load i8, ptr %2, align 1
  %4 = trunc i8 %3 to i1
  br i1 %4, label %5, label %21

5:                                                ; preds = %1
  %6 = getelementptr inbounds nuw i8, ptr %0, i64 184
  %7 = getelementptr inbounds i8, ptr %0, i64 192
  %8 = load ptr, ptr %7, align 8
  %9 = load ptr, ptr %6, align 8
  %10 = ptrtoint ptr %8 to i64
  %11 = ptrtoint ptr %9 to i64
  %12 = sub i64 %10, %11
  %13 = getelementptr inbounds nuw i8, ptr %0, i64 160
  %14 = getelementptr inbounds i8, ptr %0, i64 168
  %15 = load ptr, ptr %14, align 8
  %16 = load ptr, ptr %13, align 8
  %17 = ptrtoint ptr %15 to i64
  %18 = ptrtoint ptr %16 to i64
  %19 = sub i64 %17, %18
  %20 = icmp eq i64 %12, %19
  br label %21

21:                                               ; preds = %1, %5
  %22 = phi i1 [ %20, %5 ], [ true, %1 ]
  %23 = getelementptr inbounds nuw i8, ptr %0, i64 96
  %24 = load i8, ptr %23, align 8
  %25 = trunc i8 %24 to i1
  br i1 %25, label %38, label %26

26:                                               ; preds = %21
  %27 = getelementptr inbounds nuw i8, ptr %0, i64 160
  %28 = getelementptr inbounds i8, ptr %0, i64 168
  %29 = load ptr, ptr %28, align 8
  %30 = load ptr, ptr %27, align 8
  %31 = ptrtoint ptr %29 to i64
  %32 = ptrtoint ptr %30 to i64
  %33 = sub i64 %31, %32
  %34 = sdiv exact i64 %33, 24
  %35 = getelementptr inbounds nuw i8, ptr %0, i64 92
  %36 = load i32, ptr %35, align 4
  %37 = sext i32 %36 to i64
  %.not = icmp ult i64 %34, %37
  br i1 %.not, label %39, label %38

38:                                               ; preds = %26, %21
  br label %39

39:                                               ; preds = %38, %26
  %40 = phi i1 [ false, %26 ], [ %22, %38 ]
  ret i1 %40
}